; Function Attrs: nounwind uwtable
define internal i32 @externalEntityInitProcessor(ptr noundef %0, ptr noundef %1, ptr noundef %2, ptr noundef writeonly captures(none) %3) #0 {
  %5 = tail call fastcc i32 @initializeEncoding(ptr noundef %0)
  %.not = icmp eq i32 %5, 0
  br i1 %.not, label %6, label %9

6:                                                ; preds = %4
  %7 = getelementptr inbounds nuw i8, ptr %0, i64 544
  store ptr @externalEntityInitProcessor2, ptr %7, align 8, !tbaa !100
  %8 = tail call i32 @externalEntityInitProcessor2(ptr noundef %0, ptr noundef %1, ptr noundef %2, ptr noundef %3)
  br label %9

9:                                                ; preds = %4, %6
  %.0 = phi i32 [ %8, %6 ], [ %5, %4 ]
  ret i32 %.0
}